target datalayout = "e-m:e-p270:32:32-p271:32:32-p272:64:64-i64:64-i128:128-f80:128-n8:16:32:64-S128"
target triple = "x86_64-pc-linux-gnu"

@proto_register_kt.ett = internal global [2 x ptr] [ptr @ett_kt, ptr @ett_kt_rec], align 16
@.str.59 = private unnamed_addr constant [22 x i8] c"Kyoto Tycoon Protocol\00", align 1
@.str.60 = private unnamed_addr constant [13 x i8] c"Kyoto Tycoon\00", align 1
@.str.61 = private unnamed_addr constant [3 x i8] c"kt\00", align 1
@proto_kt = internal global i32 0, align 4
@kt_handle = internal global ptr null, align 8
@.str.62 = private unnamed_addr constant [25 x i8] c"present_key_val_as_ascii\00", align 1
@.str.63 = private unnamed_addr constant [68 x i8] c"Attempt to also show ASCII string representation of keys and values\00", align 1
@.str.64 = private unnamed_addr constant [141 x i8] c"KT allows binary values in keys and values. Attempt to show an ASCII representation anyway (which might be prematurely terminated by a NULL!\00", align 1
@kt_present_key_val_as_ascii = internal global i8 0, align 1

; Function Attrs: null_pointer_is_valid sspstrong uwtable
define hidden void @proto_register_kt() #0 {
  %1 = alloca ptr, align 8
  call void @llvm.lifetime.start.p0(i64 8, ptr %1) #4
  %2 = call i32 @proto_register_protocol(ptr noundef @.str.59, ptr noundef @.str.60, ptr noundef @.str.61)
  store i32 %2, ptr @proto_kt, align 4
  %3 = load i32, ptr @proto_kt, align 4
  %4 = call ptr @register_dissector(ptr noundef @.str.61, ptr noundef @dissect_kt, i32 noundef %3)
  store ptr %4, ptr @kt_handle, align 8
  %5 = load i32, ptr @proto_kt, align 4
  call void @proto_register_field_array(i32 noundef %5, ptr noundef @proto_register_kt.hf, i32 noundef 21)
  call void @proto_register_subtree_array(ptr noundef @proto_register_kt.ett, i32 noundef 2)
  %6 = load i32, ptr @proto_kt, align 4
  %7 = call ptr @prefs_register_protocol(i32 noundef %6, ptr noundef null)
  store ptr %7, ptr %1, align 8
  %8 = load ptr, ptr %1, align 8
  call void @prefs_register_bool_preference(ptr noundef %8, ptr noundef @.str.62, ptr noundef @.str.63, ptr noundef @.str.64, ptr noundef @kt_present_key_val_as_ascii)
  call void @llvm.lifetime.end.p0(i64 8, ptr %1) #4
  ret void
}