; Function Attrs: null_pointer_is_valid sspstrong uwtable
define hidden void @proto_register_kt() local_unnamed_addr #0 {
  %1 = tail call i32 @proto_register_protocol(ptr noundef nonnull @.str.59, ptr noundef nonnull @.str.60, ptr noundef nonnull @.str.61)
  store i32 %1, ptr @proto_kt, align 4
  %2 = tail call ptr @register_dissector(ptr noundef nonnull @.str.61, ptr noundef nonnull @dissect_kt, i32 noundef %1)
  store ptr %2, ptr @kt_handle, align 8
  %3 = load i32, ptr @proto_kt, align 4
  tail call void @proto_register_field_array(i32 noundef %3, ptr noundef nonnull @proto_register_kt.hf, i32 noundef 21)
  tail call void @proto_register_subtree_array(ptr noundef nonnull @proto_register_kt.ett, i32 noundef 2)
  %4 = load i32, ptr @proto_kt, align 4
  %5 = tail call ptr @prefs_register_protocol(i32 noundef %4, ptr noundef null)
  tail call void @prefs_register_bool_preference(ptr noundef %5, ptr noundef nonnull @.str.62, ptr noundef nonnull @.str.63, ptr noundef nonnull @.str.64, ptr noundef nonnull @kt_present_key_val_as_ascii)
  ret void
}